; Function Attrs: mustprogress uwtable
define void @_ZN7xgboost10JsonWriter5VisitEPKNS_8JsonNullE(ptr noundef nonnull readonly align 8 captures(none) dereferenceable(16) %0, ptr readnone captures(none) %1) unnamed_addr #3 align 2 {
  %3 = getelementptr inbounds nuw i8, ptr %0, i64 8
  %4 = load ptr, ptr %3, align 8, !tbaa !176
  %5 = getelementptr inbounds nuw i8, ptr %4, i64 8
  %6 = load ptr, ptr %5, align 8, !tbaa !179
  %7 = load ptr, ptr %4, align 8, !tbaa !182
  %8 = ptrtoint ptr %6 to i64
  %9 = ptrtoint ptr %7 to i64
  %10 = sub i64 %8, %9
  %11 = add i64 %10, 4
  tail call void @_ZNSt6vectorIcSaIcEE6resizeEm(ptr noundef nonnull align 8 dereferenceable(24) %4, i64 noundef %11)
  %12 = load ptr, ptr %3, align 8, !tbaa !176
  %13 = load ptr, ptr %12, align 8, !tbaa !182
  %14 = getelementptr inbounds nuw i8, ptr %13, i64 %10
  store i8 110, ptr %14, align 1, !tbaa !34
  %15 = load ptr, ptr %12, align 8, !tbaa !182
  %16 = getelementptr i8, ptr %15, i64 %10
  %17 = getelementptr i8, ptr %16, i64 1
  store i8 117, ptr %17, align 1, !tbaa !34
  %18 = load ptr, ptr %12, align 8, !tbaa !182
  %19 = getelementptr i8, ptr %18, i64 %10
  %20 = getelementptr i8, ptr %19, i64 2
  store i8 108, ptr %20, align 1, !tbaa !34
  %21 = load ptr, ptr %12, align 8, !tbaa !182
  %22 = getelementptr i8, ptr %21, i64 %10
  %23 = getelementptr i8, ptr %22, i64 3
  store i8 108, ptr %23, align 1, !tbaa !34
  ret void
}